(lp0
(dp1
S'avg_time'
p2
F1.0
sS'target'
p3
S'native-dense'
p4
sS'max_time'
p5
I1
sS'min_time'
p6
I1
sS'num_runs'
p7
I3
sS'size'
p8
I16
sa(dp9
g2
F1.0
sg3
S'native-sparse'
p10
sg5
I1
sg6
I1
sg7
I3
sg8
I16
sa(dp11
g2
F80.66666666666667
sg3
S'scidb-dense'
p12
sg5
I84
sg6
I77
sg7
I3
sg8
I16
sa(dp13
g2
F272.6666666666667
sg3
S'scidb-sparse-1'
p14
sg5
I624
sg6
I85
sg7
I3
sg8
I16
sa(dp15
g2
F136.0
sg3
S'scidb-sparse-2'
p16
sg5
I269
sg6
I69
sg7
I3
sg8
I16
sa(dp17
g2
F1.0
sg3
g4
sg5
I1
sg6
I1
sg7
I3
sg8
I32
sa(dp18
g2
F1.3333333333333333
sg3
g10
sg5
I2
sg6
I1
sg7
I3
sg8
I32
sa(dp19
g2
F72.33333333333333
sg3
g12
sg5
I78
sg6
I65
sg7
I3
sg8
I32
sa(dp20
g2
F81.66666666666667
sg3
g14
sg5
I88
sg6
I76
sg7
I3
sg8
I32
sa(dp21
g2
F78.33333333333333
sg3
g16
sg5
I88
sg6
I59
sg7
I3
sg8
I32
sa(dp22
g2
F1.6666666666666667
sg3
g4
sg5
I2
sg6
I1
sg7
I3
sg8
I64
sa(dp23
g2
F1.0
sg3
g10
sg5
I1
sg6
I1
sg7
I3
sg8
I64
sa(dp24
g2
F106.0
sg3
g12
sg5
I134
sg6
I89
sg7
I3
sg8
I64
sa(dp25
g2
F92.66666666666667
sg3
g14
sg5
I96
sg6
I90
sg7
I3
sg8
I64
sa(dp26
g2
F79.66666666666667
sg3
g16
sg5
I88
sg6
I75
sg7
I3
sg8
I64
sa(dp27
g2
F4.333333333333333
sg3
g4
sg5
I6
sg6
I3
sg7
I3
sg8
I128
sa(dp28
g2
F1.6666666666666667
sg3
g10
sg5
I3
sg6
I1
sg7
I3
sg8
I128
sa(dp29
g2
F84.66666666666667
sg3
g12
sg5
I88
sg6
I79
sg7
I3
sg8
I128
sa(dp30
g2
F80.66666666666667
sg3
g14
sg5
I85
sg6
I76
sg7
I3
sg8
I128
sa(dp31
g2
F78.33333333333333
sg3
g16
sg5
I83
sg6
I75
sg7
I3
sg8
I128
sa(dp32
g2
F26.0
sg3
g4
sg5
I29
sg6
I23
sg7
I3
sg8
I256
sa(dp33
g2
F2.6666666666666665
sg3
g10
sg5
I3
sg6
I2
sg7
I3
sg8
I256
sa(dp34
g2
F127.33333333333333
sg3
g12
sg5
I141
sg6
I119
sg7
I3
sg8
I256
sa(dp35
g2
F78.66666666666667
sg3
g14
sg5
I84
sg6
I69
sg7
I3
sg8
I256
sa(dp36
g2
F76.66666666666667
sg3
g16
sg5
I79
sg6
I75
sg7
I3
sg8
I256
sa(dp37
g2
F556.0
sg3
g4
sg5
I610
sg6
I523
sg7
I3
sg8
I512
sa(dp38
g2
F8.666666666666666
sg3
g10
sg5
I9
sg6
I8
sg7
I3
sg8
I512
sa(dp39
g2
F881.0
sg3
g12
sg5
I1169
sg6
I716
sg7
I3
sg8
I512
sa(dp40
g2
F115.0
sg3
g14
sg5
I159
sg6
I90
sg7
I3
sg8
I512
sa(dp41
g2
F76.33333333333333
sg3
g16
sg5
I79
sg6
I73
sg7
I3
sg8
I512
sa(dp42
g2
F16976.0
sg3
g4
sg5
I16976
sg6
I16976
sg7
I1
sg8
I1024
sa(dp43
g2
F35.333333333333336
sg3
g10
sg5
I38
sg6
I34
sg7
I3
sg8
I1024
sa(dp44
g2
F17335.0
sg3
g12
sg5
I17335
sg6
I17335
sg7
I1
sg8
I1024
sa(dp45
g2
F168.66666666666666
sg3
g14
sg5
I174
sg6
I162
sg7
I3
sg8
I1024
sa(dp46
g2
F80.66666666666667
sg3
g16
sg5
I91
sg6
I68
sg7
I3
sg8
I1024
sa(dp47
g2
F183.0
sg3
g10
sg5
I190
sg6
I172
sg7
I3
sg8
I2048
sa(dp48
g2
F906.3333333333334
sg3
g14
sg5
I1059
sg6
I824
sg7
I3
sg8
I2048
sa(dp49
g2
F176.66666666666666
sg3
g16
sg5
I185
sg6
I170
sg7
I3
sg8
I2048
sa(dp50
g2
F1365.6666666666667
sg3
g10
sg5
I1466
sg6
I1306
sg7
I3
sg8
I4096
sa(dp51
g2
F6236.5
sg3
g14
sg5
I6447
sg6
I6026
sg7
I2
sg8
I4096
sa(dp52
g2
F914.3333333333334
sg3
g16
sg5
I966
sg6
I869
sg7
I3
sg8
I4096
sa(dp53
g2
F14303.0
sg3
g10
sg5
I14303
sg6
I14303
sg7
I1
sg8
I8192
sa(dp54
g2
F52376.0
sg3
g14
sg5
I52376
sg6
I52376
sg7
I1
sg8
I8192
sa(dp55
g2
F7332.0
sg3
g16
sg5
I7518
sg6
I7146
sg7
I2
sg8
I8192
sa(dp56
g2
F72905.0
sg3
g16
sg5
I72905
sg6
I72905
sg7
I1
sg8
I16384
sa.